target datalayout = "e-m:e-p270:32:32-p271:32:32-p272:64:64-i64:64-i128:128-f80:128-n8:16:32:64-S128"
target triple = "x86_64-pc-linux-gnu"

%struct.H5O_loc_t = type { ptr, i64, i8 }
%struct.H5G_name_t = type { ptr, ptr, i32 }
%struct.H5G_loc_t = type { ptr, ptr }

@.str.3 = private unnamed_addr constant [100 x i8] c"generated/home/dtcxzyw/WorkSpace/Projects/compilers/llvm-opt-benchmark/bench/hdf5/hdf5/src/H5Gint.c\00", align 1
@H5E_SYM_g = external global i64, align 8
@H5E_NOTFOUND_g = external global i64, align 8
@.str.13 = private unnamed_addr constant [16 x i8] c"group not found\00", align 1
@H5E_CANTGET_g = external global i64, align 8
@H5E_CANTRELEASE_g = external global i64, align 8
@.str.17 = private unnamed_addr constant [20 x i8] c"can't free location\00", align 1
@__func__.H5G__get_info_by_name = private unnamed_addr constant [22 x i8] c"H5G__get_info_by_name\00", align 1
@.str.61 = private unnamed_addr constant [26 x i8] c"can't retrieve group info\00", align 1

; Function Attrs: nounwind uwtable
define i32 @H5G__get_info_by_name(ptr noundef %0, ptr noundef %1, ptr noundef %2) #0 {
  %4 = alloca ptr, align 8
  %5 = alloca ptr, align 8
  %6 = alloca ptr, align 8
  %7 = alloca %struct.H5G_loc_t, align 8
  %8 = alloca %struct.H5G_name_t, align 8
  %9 = alloca %struct.H5O_loc_t, align 8
  %10 = alloca i8, align 1
  %11 = alloca i32, align 4
  %12 = alloca i8, align 1
  store ptr %0, ptr %4, align 8
  store ptr %1, ptr %5, align 8
  store ptr %2, ptr %6, align 8
  store i8 0, ptr %10, align 1
  store i32 0, ptr %11, align 4
  store i8 0, ptr %12, align 1
  %13 = getelementptr inbounds %struct.H5G_loc_t, ptr %7, i32 0, i32 0
  store ptr %9, ptr %13, align 8
  %14 = getelementptr inbounds %struct.H5G_loc_t, ptr %7, i32 0, i32 1
  store ptr %8, ptr %14, align 8
  %15 = call i32 @H5G_loc_reset(ptr noundef %7)
  %16 = load ptr, ptr %4, align 8
  %17 = load ptr, ptr %5, align 8
  %18 = call i32 @H5G_loc_find(ptr noundef %16, ptr noundef %17, ptr noundef %7)
  %19 = icmp slt i32 %18, 0
  br i1 %19, label %20, label %35

20:                                               ; preds = %3
  br label %21

21:                                               ; preds = %20
  br label %22

22:                                               ; preds = %21
  br label %23

23:                                               ; preds = %22
  %24 = load i64, ptr @H5E_SYM_g, align 8
  %25 = load i64, ptr @H5E_NOTFOUND_g, align 8
  %26 = call i32 (ptr, ptr, i32, i64, i64, ptr, ...) @H5E_printf_stack(ptr noundef @.str.3, ptr noundef @__func__.H5G__get_info_by_name, i32 noundef 1326, i64 noundef %24, i64 noundef %25, ptr noundef @.str.13)
  br label %27

27:                                               ; preds = %23
  store i8 1, ptr %12, align 1
  %28 = load i8, ptr %12, align 1
  %29 = trunc i8 %28 to i1
  %30 = zext i1 %29 to i8
  store i8 %30, ptr %12, align 1
  br label %31

31:                                               ; preds = %27
  br label %32

32:                                               ; preds = %31
  store i32 -1, ptr %11, align 4
  br label %57

33:                                               ; No predecessors!
  br label %34

34:                                               ; preds = %33
  br label %35

35:                                               ; preds = %34, %3
  store i8 1, ptr %10, align 1
  %36 = getelementptr inbounds %struct.H5G_loc_t, ptr %7, i32 0, i32 0
  %37 = load ptr, ptr %36, align 8
  %38 = load ptr, ptr %6, align 8
  %39 = call i32 @H5G__obj_info(ptr noundef %37, ptr noundef %38)
  %40 = icmp slt i32 %39, 0
  br i1 %40, label %41, label %56

41:                                               ; preds = %35
  br label %42

42:                                               ; preds = %41
  br label %43

43:                                               ; preds = %42
  br label %44

44:                                               ; preds = %43
  %45 = load i64, ptr @H5E_SYM_g, align 8
  %46 = load i64, ptr @H5E_CANTGET_g, align 8
  %47 = call i32 (ptr, ptr, i32, i64, i64, ptr, ...) @H5E_printf_stack(ptr noundef @.str.3, ptr noundef @__func__.H5G__get_info_by_name, i32 noundef 1331, i64 noundef %45, i64 noundef %46, ptr noundef @.str.61)
  br label %48

48:                                               ; preds = %44
  store i8 1, ptr %12, align 1
  %49 = load i8, ptr %12, align 1
  %50 = trunc i8 %49 to i1
  %51 = zext i1 %50 to i8
  store i8 %51, ptr %12, align 1
  br label %52

52:                                               ; preds = %48
  br label %53

53:                                               ; preds = %52
  store i32 -1, ptr %11, align 4
  br label %57

54:                                               ; No predecessors!
  br label %55

55:                                               ; preds = %54
  br label %56

56:                                               ; preds = %55, %35
  br label %57

57:                                               ; preds = %56, %53, %32
  %58 = load i8, ptr %10, align 1
  %59 = trunc i8 %58 to i1
  br i1 %59, label %60, label %76

60:                                               ; preds = %57
  %61 = call i32 @H5G_loc_free(ptr noundef %7)
  %62 = icmp slt i32 %61, 0
  br i1 %62, label %63, label %76

63:                                               ; preds = %60
  br label %64

64:                                               ; preds = %63
  br label %65

65:                                               ; preds = %64
  br label %66

66:                                               ; preds = %65
  %67 = load i64, ptr @H5E_SYM_g, align 8
  %68 = load i64, ptr @H5E_CANTRELEASE_g, align 8
  %69 = call i32 (ptr, ptr, i32, i64, i64, ptr, ...) @H5E_printf_stack(ptr noundef @.str.3, ptr noundef @__func__.H5G__get_info_by_name, i32 noundef 1336, i64 noundef %67, i64 noundef %68, ptr noundef @.str.17)
  br label %70

70:                                               ; preds = %66
  store i8 1, ptr %12, align 1
  %71 = load i8, ptr %12, align 1
  %72 = trunc i8 %71 to i1
  %73 = zext i1 %72 to i8
  store i8 %73, ptr %12, align 1
  br label %74

74:                                               ; preds = %70
  store i32 -1, ptr %11, align 4
  br label %75

75:                                               ; preds = %74
  br label %76

76:                                               ; preds = %75, %60, %57
  %77 = load i32, ptr %11, align 4
  ret i32 %77
}